target datalayout = "e-m:e-p270:32:32-p271:32:32-p272:64:64-i64:64-i128:128-f80:128-n8:16:32:64-S128"
target triple = "x86_64-pc-linux-gnu"

%struct.SchTask = type { ptr, %struct.SchedulerNode, ptr, ptr, i64, i32 }
%struct.SchedulerNode = type { i32, i32, i32 }

@.str = private unnamed_addr constant [30 x i8] c"Assertion %s failed at %s:%d\0A\00", align 1
@.str.2 = private unnamed_addr constant [23 x i8] c"fftools/ffmpeg_sched.c\00", align 1
@.str.61 = private unnamed_addr constant [20 x i8] c"Starting thread...\0A\00", align 1
@.str.62 = private unnamed_addr constant [22 x i8] c"!task->thread_running\00", align 1
@.str.63 = private unnamed_addr constant [29 x i8] c"pthread_create() failed: %s\0A\00", align 1

; Function Attrs: nounwind uwtable
define internal i32 @task_start(ptr noundef %0) #0 {
  %2 = alloca i32, align 4
  %3 = alloca ptr, align 8
  %4 = alloca i32, align 4
  %5 = alloca i32, align 4
  store ptr %0, ptr %3, align 8, !tbaa !101
  call void @llvm.lifetime.start.p0(i64 4, ptr %4) #9
  %6 = load ptr, ptr %3, align 8, !tbaa !101
  %7 = getelementptr inbounds nuw %struct.SchTask, ptr %6, i32 0, i32 3
  %8 = load ptr, ptr %7, align 8, !tbaa !107
  call void (ptr, i32, ptr, ...) @av_log(ptr noundef %8, i32 noundef 40, ptr noundef @.str.61)
  br label %9

9:                                                ; preds = %1
  %10 = load ptr, ptr %3, align 8, !tbaa !101
  %11 = getelementptr inbounds nuw %struct.SchTask, ptr %10, i32 0, i32 5
  %12 = load i32, ptr %11, align 8, !tbaa !189
  %13 = icmp ne i32 %12, 0
  br i1 %13, label %14, label %15

14:                                               ; preds = %9
  call void (ptr, i32, ptr, ...) @av_log(ptr noundef null, i32 noundef 0, ptr noundef @.str, ptr noundef @.str.62, ptr noundef @.str.2, i32 noundef 412)
  call void @abort() #10
  unreachable

15:                                               ; preds = %9
  br label %16

16:                                               ; preds = %15
  br label %17

17:                                               ; preds = %16
  %18 = load ptr, ptr %3, align 8, !tbaa !101
  %19 = getelementptr inbounds nuw %struct.SchTask, ptr %18, i32 0, i32 4
  %20 = load ptr, ptr %3, align 8, !tbaa !101
  %21 = call i32 @pthread_create(ptr noundef %19, ptr noundef null, ptr noundef @task_wrapper, ptr noundef %20) #9
  store i32 %21, ptr %4, align 4, !tbaa !12
  %22 = load i32, ptr %4, align 4, !tbaa !12
  %23 = icmp ne i32 %22, 0
  br i1 %23, label %24, label %32

24:                                               ; preds = %17
  %25 = load ptr, ptr %3, align 8, !tbaa !101
  %26 = getelementptr inbounds nuw %struct.SchTask, ptr %25, i32 0, i32 3
  %27 = load ptr, ptr %26, align 8, !tbaa !107
  %28 = load i32, ptr %4, align 4, !tbaa !12
  %29 = call ptr @strerror(i32 noundef %28) #9
  call void (ptr, i32, ptr, ...) @av_log(ptr noundef %27, i32 noundef 16, ptr noundef @.str.63, ptr noundef %29)
  %30 = load i32, ptr %4, align 4, !tbaa !12
  %31 = sub nsw i32 0, %30
  store i32 %31, ptr %2, align 4
  store i32 1, ptr %5, align 4
  br label %35

32:                                               ; preds = %17
  %33 = load ptr, ptr %3, align 8, !tbaa !101
  %34 = getelementptr inbounds nuw %struct.SchTask, ptr %33, i32 0, i32 5
  store i32 1, ptr %34, align 8, !tbaa !189
  store i32 0, ptr %2, align 4
  store i32 1, ptr %5, align 4
  br label %35

35:                                               ; preds = %32, %24
  call void @llvm.lifetime.end.p0(i64 4, ptr %4) #9
  %36 = load i32, ptr %2, align 4
  ret i32 %36
}