; Function Attrs: nounwind uwtable
define internal fastcc range(i32 -2147483647, -2147483648) i32 @task_start(ptr noundef %0) unnamed_addr #0 {
  %2 = getelementptr inbounds nuw i8, ptr %0, i64 32
  %3 = load ptr, ptr %2, align 8, !tbaa !93
  tail call void (ptr, i32, ptr, ...) @av_log(ptr noundef %3, i32 noundef 40, ptr noundef nonnull @.str.61) #9
  %4 = getelementptr inbounds nuw i8, ptr %0, i64 48
  %5 = load i32, ptr %4, align 8, !tbaa !71
  %.not = icmp eq i32 %5, 0
  br i1 %.not, label %7, label %6

6:                                                ; preds = %1
  tail call void (ptr, i32, ptr, ...) @av_log(ptr noundef null, i32 noundef 0, ptr noundef nonnull @.str, ptr noundef nonnull @.str.62, ptr noundef nonnull @.str.2, i32 noundef 412) #9
  tail call void @abort() #10
  unreachable

7:                                                ; preds = %1
  %8 = getelementptr inbounds nuw i8, ptr %0, i64 40
  %9 = tail call i32 @pthread_create(ptr noundef nonnull %8, ptr noundef null, ptr noundef nonnull @task_wrapper, ptr noundef nonnull %0) #9
  %.not10 = icmp eq i32 %9, 0
  br i1 %.not10, label %14, label %10

10:                                               ; preds = %7
  %11 = load ptr, ptr %2, align 8, !tbaa !93
  %12 = tail call ptr @strerror(i32 noundef %9) #9
  tail call void (ptr, i32, ptr, ...) @av_log(ptr noundef %11, i32 noundef 16, ptr noundef nonnull @.str.63, ptr noundef %12) #9
  %13 = sub nsw i32 0, %9
  br label %15

14:                                               ; preds = %7
  store i32 1, ptr %4, align 8, !tbaa !71
  br label %15

15:                                               ; preds = %14, %10
  %.0 = phi i32 [ %13, %10 ], [ 0, %14 ]
  ret i32 %.0
}